target datalayout = "e-m:e-p270:32:32-p271:32:32-p272:64:64-i64:64-i128:128-f80:128-n8:16:32:64-S128"
target triple = "x86_64-pc-linux-gnu"

; Function Attrs: nounwind uwtable
define internal void @dc_8x8_c(ptr noundef %0, i64 noundef %1, ptr noundef %2, ptr noundef %3) #1 {
  %5 = alloca ptr, align 8
  %6 = alloca i64, align 8
  %7 = alloca ptr, align 8
  %8 = alloca ptr, align 8
  %9 = alloca ptr, align 8
  %10 = alloca ptr, align 8
  %11 = alloca ptr, align 8
  %12 = alloca i64, align 8
  %13 = alloca i32, align 4
  store ptr %0, ptr %5, align 8, !tbaa !10
  store i64 %1, ptr %6, align 8, !tbaa !12
  store ptr %2, ptr %7, align 8, !tbaa !10
  store ptr %3, ptr %8, align 8, !tbaa !10
  call void @llvm.lifetime.start.p0(i64 8, ptr %9) #9
  %14 = load ptr, ptr %5, align 8, !tbaa !10
  store ptr %14, ptr %9, align 8, !tbaa !14
  call void @llvm.lifetime.start.p0(i64 8, ptr %10) #9
  %15 = load ptr, ptr %7, align 8, !tbaa !10
  store ptr %15, ptr %10, align 8, !tbaa !14
  call void @llvm.lifetime.start.p0(i64 8, ptr %11) #9
  %16 = load ptr, ptr %8, align 8, !tbaa !10
  store ptr %16, ptr %11, align 8, !tbaa !14
  call void @llvm.lifetime.start.p0(i64 8, ptr %12) #9
  %17 = load ptr, ptr %10, align 8, !tbaa !14
  %18 = getelementptr inbounds i16, ptr %17, i64 0
  %19 = load i16, ptr %18, align 2, !tbaa !17
  %20 = zext i16 %19 to i32
  %21 = load ptr, ptr %10, align 8, !tbaa !14
  %22 = getelementptr inbounds i16, ptr %21, i64 1
  %23 = load i16, ptr %22, align 2, !tbaa !17
  %24 = zext i16 %23 to i32
  %25 = add nsw i32 %20, %24
  %26 = load ptr, ptr %10, align 8, !tbaa !14
  %27 = getelementptr inbounds i16, ptr %26, i64 2
  %28 = load i16, ptr %27, align 2, !tbaa !17
  %29 = zext i16 %28 to i32
  %30 = add nsw i32 %25, %29
  %31 = load ptr, ptr %10, align 8, !tbaa !14
  %32 = getelementptr inbounds i16, ptr %31, i64 3
  %33 = load i16, ptr %32, align 2, !tbaa !17
  %34 = zext i16 %33 to i32
  %35 = add nsw i32 %30, %34
  %36 = load ptr, ptr %10, align 8, !tbaa !14
  %37 = getelementptr inbounds i16, ptr %36, i64 4
  %38 = load i16, ptr %37, align 2, !tbaa !17
  %39 = zext i16 %38 to i32
  %40 = add nsw i32 %35, %39
  %41 = load ptr, ptr %10, align 8, !tbaa !14
  %42 = getelementptr inbounds i16, ptr %41, i64 5
  %43 = load i16, ptr %42, align 2, !tbaa !17
  %44 = zext i16 %43 to i32
  %45 = add nsw i32 %40, %44
  %46 = load ptr, ptr %10, align 8, !tbaa !14
  %47 = getelementptr inbounds i16, ptr %46, i64 6
  %48 = load i16, ptr %47, align 2, !tbaa !17
  %49 = zext i16 %48 to i32
  %50 = add nsw i32 %45, %49
  %51 = load ptr, ptr %10, align 8, !tbaa !14
  %52 = getelementptr inbounds i16, ptr %51, i64 7
  %53 = load i16, ptr %52, align 2, !tbaa !17
  %54 = zext i16 %53 to i32
  %55 = add nsw i32 %50, %54
  %56 = load ptr, ptr %11, align 8, !tbaa !14
  %57 = getelementptr inbounds i16, ptr %56, i64 0
  %58 = load i16, ptr %57, align 2, !tbaa !17
  %59 = zext i16 %58 to i32
  %60 = add nsw i32 %55, %59
  %61 = load ptr, ptr %11, align 8, !tbaa !14
  %62 = getelementptr inbounds i16, ptr %61, i64 1
  %63 = load i16, ptr %62, align 2, !tbaa !17
  %64 = zext i16 %63 to i32
  %65 = add nsw i32 %60, %64
  %66 = load ptr, ptr %11, align 8, !tbaa !14
  %67 = getelementptr inbounds i16, ptr %66, i64 2
  %68 = load i16, ptr %67, align 2, !tbaa !17
  %69 = zext i16 %68 to i32
  %70 = add nsw i32 %65, %69
  %71 = load ptr, ptr %11, align 8, !tbaa !14
  %72 = getelementptr inbounds i16, ptr %71, i64 3
  %73 = load i16, ptr %72, align 2, !tbaa !17
  %74 = zext i16 %73 to i32
  %75 = add nsw i32 %70, %74
  %76 = load ptr, ptr %11, align 8, !tbaa !14
  %77 = getelementptr inbounds i16, ptr %76, i64 4
  %78 = load i16, ptr %77, align 2, !tbaa !17
  %79 = zext i16 %78 to i32
  %80 = add nsw i32 %75, %79
  %81 = load ptr, ptr %11, align 8, !tbaa !14
  %82 = getelementptr inbounds i16, ptr %81, i64 5
  %83 = load i16, ptr %82, align 2, !tbaa !17
  %84 = zext i16 %83 to i32
  %85 = add nsw i32 %80, %84
  %86 = load ptr, ptr %11, align 8, !tbaa !14
  %87 = getelementptr inbounds i16, ptr %86, i64 6
  %88 = load i16, ptr %87, align 2, !tbaa !17
  %89 = zext i16 %88 to i32
  %90 = add nsw i32 %85, %89
  %91 = load ptr, ptr %11, align 8, !tbaa !14
  %92 = getelementptr inbounds i16, ptr %91, i64 7
  %93 = load i16, ptr %92, align 2, !tbaa !17
  %94 = zext i16 %93 to i32
  %95 = add nsw i32 %90, %94
  %96 = add nsw i32 %95, 8
  %97 = ashr i32 %96, 4
  %98 = sext i32 %97 to i64
  %99 = mul i64 %98, 281479271743489
  store i64 %99, ptr %12, align 8, !tbaa !12
  call void @llvm.lifetime.start.p0(i64 4, ptr %13) #9
  %100 = load i64, ptr %6, align 8, !tbaa !12
  %101 = udiv i64 %100, 2
  store i64 %101, ptr %6, align 8, !tbaa !12
  store i32 0, ptr %13, align 4, !tbaa !19
  br label %102

102:                                              ; preds = %115, %4
  %103 = load i32, ptr %13, align 4, !tbaa !19
  %104 = icmp slt i32 %103, 8
  br i1 %104, label %105, label %118

105:                                              ; preds = %102
  %106 = load i64, ptr %12, align 8, !tbaa !12
  %107 = load ptr, ptr %9, align 8, !tbaa !14
  %108 = getelementptr inbounds i16, ptr %107, i64 0
  store i64 %106, ptr %108, align 8, !tbaa !16
  %109 = load i64, ptr %12, align 8, !tbaa !12
  %110 = load ptr, ptr %9, align 8, !tbaa !14
  %111 = getelementptr inbounds i16, ptr %110, i64 4
  store i64 %109, ptr %111, align 8, !tbaa !16
  %112 = load i64, ptr %6, align 8, !tbaa !12
  %113 = load ptr, ptr %9, align 8, !tbaa !14
  %114 = getelementptr inbounds i16, ptr %113, i64 %112
  store ptr %114, ptr %9, align 8, !tbaa !14
  br label %115

115:                                              ; preds = %105
  %116 = load i32, ptr %13, align 4, !tbaa !19
  %117 = add nsw i32 %116, 1
  store i32 %117, ptr %13, align 4, !tbaa !19
  br label %102, !llvm.loop !25

118:                                              ; preds = %102
  call void @llvm.lifetime.end.p0(i64 4, ptr %13) #9
  call void @llvm.lifetime.end.p0(i64 8, ptr %12) #9
  call void @llvm.lifetime.end.p0(i64 8, ptr %11) #9
  call void @llvm.lifetime.end.p0(i64 8, ptr %10) #9
  call void @llvm.lifetime.end.p0(i64 8, ptr %9) #9
  ret void
}