; Function Attrs: nofree norecurse nosync nounwind memory(argmem: readwrite) uwtable
define internal void @dc_8x8_c(ptr noundef writeonly captures(none) %0, i64 noundef %1, ptr noundef readonly captures(none) %2, ptr noundef readonly captures(none) %3) #2 {
  %5 = load i16, ptr %2, align 2, !tbaa !9
  %6 = zext i16 %5 to i64
  %7 = getelementptr inbounds nuw i8, ptr %2, i64 2
  %8 = load i16, ptr %7, align 2, !tbaa !9
  %9 = zext i16 %8 to i64
  %10 = getelementptr inbounds nuw i8, ptr %2, i64 4
  %11 = load i16, ptr %10, align 2, !tbaa !9
  %12 = zext i16 %11 to i64
  %13 = getelementptr inbounds nuw i8, ptr %2, i64 6
  %14 = load i16, ptr %13, align 2, !tbaa !9
  %15 = zext i16 %14 to i64
  %16 = getelementptr inbounds nuw i8, ptr %2, i64 8
  %17 = load i16, ptr %16, align 2, !tbaa !9
  %18 = zext i16 %17 to i64
  %19 = getelementptr inbounds nuw i8, ptr %2, i64 10
  %20 = load i16, ptr %19, align 2, !tbaa !9
  %21 = zext i16 %20 to i64
  %22 = getelementptr inbounds nuw i8, ptr %2, i64 12
  %23 = load i16, ptr %22, align 2, !tbaa !9
  %24 = zext i16 %23 to i64
  %25 = getelementptr inbounds nuw i8, ptr %2, i64 14
  %26 = load i16, ptr %25, align 2, !tbaa !9
  %27 = zext i16 %26 to i64
  %28 = load i16, ptr %3, align 2, !tbaa !9
  %29 = zext i16 %28 to i64
  %30 = getelementptr inbounds nuw i8, ptr %3, i64 2
  %31 = load i16, ptr %30, align 2, !tbaa !9
  %32 = zext i16 %31 to i64
  %33 = getelementptr inbounds nuw i8, ptr %3, i64 4
  %34 = load i16, ptr %33, align 2, !tbaa !9
  %35 = zext i16 %34 to i64
  %36 = getelementptr inbounds nuw i8, ptr %3, i64 6
  %37 = load i16, ptr %36, align 2, !tbaa !9
  %38 = zext i16 %37 to i64
  %39 = getelementptr inbounds nuw i8, ptr %3, i64 8
  %40 = load i16, ptr %39, align 2, !tbaa !9
  %41 = zext i16 %40 to i64
  %42 = getelementptr inbounds nuw i8, ptr %3, i64 10
  %43 = load i16, ptr %42, align 2, !tbaa !9
  %44 = zext i16 %43 to i64
  %45 = getelementptr inbounds nuw i8, ptr %3, i64 12
  %46 = load i16, ptr %45, align 2, !tbaa !9
  %47 = zext i16 %46 to i64
  %48 = getelementptr inbounds nuw i8, ptr %3, i64 14
  %49 = load i16, ptr %48, align 2, !tbaa !9
  %50 = zext i16 %49 to i64
  %51 = add nuw nsw i64 %6, 8
  %52 = add nuw nsw i64 %51, %9
  %53 = add nuw nsw i64 %52, %12
  %54 = add nuw nsw i64 %53, %15
  %55 = add nuw nsw i64 %54, %18
  %56 = add nuw nsw i64 %55, %21
  %57 = add nuw nsw i64 %56, %24
  %58 = add nuw nsw i64 %57, %27
  %59 = add nuw nsw i64 %58, %29
  %60 = add nuw nsw i64 %59, %32
  %61 = add nuw nsw i64 %60, %35
  %62 = add nuw nsw i64 %61, %38
  %63 = add nuw nsw i64 %62, %41
  %64 = add nuw nsw i64 %63, %44
  %65 = add nuw nsw i64 %64, %47
  %66 = add nuw nsw i64 %65, %50
  %67 = lshr i64 %66, 4
  %68 = mul nuw i64 %67, 281479271743489
  %69 = lshr i64 %1, 1
  br label %70

70:                                               ; preds = %4, %70
  %.029 = phi i32 [ 0, %4 ], [ %73, %70 ]
  %.02728 = phi ptr [ %0, %4 ], [ %72, %70 ]
  store i64 %68, ptr %.02728, align 8, !tbaa !8
  %71 = getelementptr inbounds nuw i8, ptr %.02728, i64 8
  store i64 %68, ptr %71, align 8, !tbaa !8
  %72 = getelementptr inbounds nuw i16, ptr %.02728, i64 %69
  %73 = add nuw nsw i32 %.029, 1
  %exitcond.not = icmp eq i32 %73, 8
  br i1 %exitcond.not, label %74, label %70, !llvm.loop !15

74:                                               ; preds = %70
  ret void
}